Archive member included to satisfy reference by file (symbol)

/Users/jeroen/source/agondev/release/lib/libagon.a(nanoprintf.o)
                              obj/main.o (_printf)
/Users/jeroen/source/agondev/release/lib/libagon.a(vdp_cursor_enable.o)
                              obj/main.o (_vdp_cursor_enable)
/Users/jeroen/source/agondev/release/lib/libagon.a(vdp_load_bitmap.o)
                              obj/main.o (_vdp_load_bitmap)
/Users/jeroen/source/agondev/release/lib/libagon.a(vdp_mouse_set_cursor.o)
                              obj/main.o (_vdp_mouse_set_cursor)
/Users/jeroen/source/agondev/release/lib/libagon.a(vdp_mouse_enable.o)
                              obj/main.o (_vdp_mouse_enable)
/Users/jeroen/source/agondev/release/lib/libagon.a(vdp_select_bitmap.o)
                              obj/main.o (_vdp_select_bitmap)
/Users/jeroen/source/agondev/release/lib/libagon.a(vdp_clear_screen.o)
                              obj/main.o (_vdp_clear_screen)
/Users/jeroen/source/agondev/release/lib/libagon.a(vdp_mouse_disable.o)
                              obj/main.o (_vdp_mouse_disable)
/Users/jeroen/source/agondev/release/lib/libagon.a(vdp_set_pixel_coordinates.o)
                              obj/main.o (_vdp_set_pixel_coordinates)
/Users/jeroen/source/agondev/release/lib/libagon.a(vdp_mouse_set_bitmap.o)
                              obj/main.o (_vdp_mouse_set_bitmap)
/Users/jeroen/source/agondev/release/lib/libagon.a(vdp_cursor_tab.o)
                              obj/main.o (_vdp_cursor_tab)
/Users/jeroen/source/agondev/release/lib/libagon.a(vdp_mode.o)
                              obj/main.o (_vdp_mode)
/Users/jeroen/source/agondev/release/lib/libagon.a(timer.o)
                              obj/main.o (_delay)
/Users/jeroen/source/agondev/release/lib/libagon.a(putchar.o)
                              /Users/jeroen/source/agondev/release/lib/libagon.a(nanoprintf.o) (_putchar)
/Users/jeroen/source/agondev/release/lib/libagon.a(puts.o)
                              obj/main.o (_puts)
/Users/jeroen/source/agondev/release/lib/libagon.a(crt0.o)
                              (__start)
/Users/jeroen/source/agondev/release/lib/libagon.a(vdp_waitkeyup.o)
                              obj/main.o (_vdp_waitKeyUp)
/Users/jeroen/source/agondev/release/lib/libagon.a(vdp_getkeycode.o)
                              obj/main.o (_vdp_getKeyCode)
/Users/jeroen/source/agondev/release/lib/libagon.a(mos_getsysvar_mouseydelta.o)
                              obj/main.o (_getsysvar_mouseYDelta)
/Users/jeroen/source/agondev/release/lib/libagon.a(mos_getsysvar_mousexdelta.o)
                              obj/main.o (_getsysvar_mouseXDelta)
/Users/jeroen/source/agondev/release/lib/libagon.a(mos_getsysvar_mousewheel.o)
                              obj/main.o (_getsysvar_mouseWheel)
/Users/jeroen/source/agondev/release/lib/libagon.a(mos_getsysvar_mousex.o)
                              obj/main.o (_getsysvar_mouseX)
/Users/jeroen/source/agondev/release/lib/libagon.a(mos_getsysvar_mousey.o)
                              obj/main.o (_getsysvar_mouseY)
/Users/jeroen/source/agondev/release/lib/libagon.a(mos_getsysvar_mousebuttons.o)
                              obj/main.o (_getsysvar_mouseButtons)
/Users/jeroen/source/agondev/release/lib/libagon.a(mos_puts.o)
                              /Users/jeroen/source/agondev/release/lib/libagon.a(vdp_cursor_enable.o) (_mos_puts)
/Users/jeroen/source/agondev/release/lib/libagon.a(ldivu.o)
                              /Users/jeroen/source/agondev/release/lib/libagon.a(nanoprintf.o) (__ldivu)
/Users/jeroen/source/agondev/release/lib/libagon.a(lcmpzero.o)
                              /Users/jeroen/source/agondev/release/lib/libagon.a(nanoprintf.o) (__lcmpzero)
/Users/jeroen/source/agondev/release/lib/libagon.a(sshru.o)
                              /Users/jeroen/source/agondev/release/lib/libagon.a(nanoprintf.o) (__sshru)
/Users/jeroen/source/agondev/release/lib/libagon.a(lneg.o)
                              /Users/jeroen/source/agondev/release/lib/libagon.a(nanoprintf.o) (__lneg)
/Users/jeroen/source/agondev/release/lib/libagon.a(ldvrmu.o)
                              /Users/jeroen/source/agondev/release/lib/libagon.a(ldivu.o) (__ldvrmu)
/Users/jeroen/source/agondev/release/lib/libagon.a(sand.o)
                              /Users/jeroen/source/agondev/release/lib/libagon.a(nanoprintf.o) (__sand)
/Users/jeroen/source/agondev/release/lib/libagon.a(lmulu.o)
                              /Users/jeroen/source/agondev/release/lib/libagon.a(nanoprintf.o) (__lmulu)
/Users/jeroen/source/agondev/release/lib/libagon.a(ishl.o)
                              /Users/jeroen/source/agondev/release/lib/libagon.a(nanoprintf.o) (__ishl)
/Users/jeroen/source/agondev/release/lib/libagon.a(lshru.o)
                              /Users/jeroen/source/agondev/release/lib/libagon.a(nanoprintf.o) (__lshru)
/Users/jeroen/source/agondev/release/lib/libagon.a(fpcmp.o)
                              /Users/jeroen/source/agondev/release/lib/libagon.a(nanoprintf.o) (__fcmp)
/Users/jeroen/source/agondev/release/lib/libagon.a(frameset0.o)
                              /Users/jeroen/source/agondev/release/lib/libagon.a(nanoprintf.o) (__frameset0)
/Users/jeroen/source/agondev/release/lib/libagon.a(lcmps.o)
                              /Users/jeroen/source/agondev/release/lib/libagon.a(fpcmp.o) (__lcmps)
/Users/jeroen/source/agondev/release/lib/libagon.a(imulu.o)
                              /Users/jeroen/source/agondev/release/lib/libagon.a(nanoprintf.o) (__imulu)
/Users/jeroen/source/agondev/release/lib/libagon.a(lshl.o)
                              /Users/jeroen/source/agondev/release/lib/libagon.a(nanoprintf.o) (__lshl)
/Users/jeroen/source/agondev/release/lib/libagon.a(lcmpu.o)
                              /Users/jeroen/source/agondev/release/lib/libagon.a(nanoprintf.o) (__lcmpu)
/Users/jeroen/source/agondev/release/lib/libagon.a(ishrs.o)
                              /Users/jeroen/source/agondev/release/lib/libagon.a(nanoprintf.o) (__ishru)
/Users/jeroen/source/agondev/release/lib/libagon.a(setflag.o)
                              /Users/jeroen/source/agondev/release/lib/libagon.a(nanoprintf.o) (__setflag)
/Users/jeroen/source/agondev/release/lib/libagon.a(indcallhl.o)
                              /Users/jeroen/source/agondev/release/lib/libagon.a(nanoprintf.o) (__indcallhl)
/Users/jeroen/source/agondev/release/lib/libagon.a(and.o)
                              /Users/jeroen/source/agondev/release/lib/libagon.a(nanoprintf.o) (__land)
/Users/jeroen/source/agondev/release/lib/libagon.a(ladd.o)
                              /Users/jeroen/source/agondev/release/lib/libagon.a(nanoprintf.o) (__ladd)
/Users/jeroen/source/agondev/release/lib/libagon.a(bshru.o)
                              /Users/jeroen/source/agondev/release/lib/libagon.a(nanoprintf.o) (__bshru)
/Users/jeroen/source/agondev/release/lib/libagon.a(frameset.o)
                              obj/main.o (__frameset)
/Users/jeroen/source/agondev/release/lib/libagon.a(xor.o)
                              /Users/jeroen/source/agondev/release/lib/libagon.a(nanoprintf.o) (__ixor)
/Users/jeroen/source/agondev/release/lib/libagon.a(idivu.o)
                              /Users/jeroen/source/agondev/release/lib/libagon.a(nanoprintf.o) (__idivu)
/Users/jeroen/source/agondev/release/lib/libagon.a(fputc.o)
                              /Users/jeroen/source/agondev/release/lib/libagon.a(nanoprintf.o) (_fputc)
/Users/jeroen/source/agondev/release/lib/libagon.a(files.o)
                              /Users/jeroen/source/agondev/release/lib/libagon.a(crt0.o) (__stdio_init)
/Users/jeroen/source/agondev/release/lib/libagon.a(free.c.o)
                              /Users/jeroen/source/agondev/release/lib/libagon.a(crt0.o) (_free)
/Users/jeroen/source/agondev/release/lib/libagon.a(outchar.o)
                              /Users/jeroen/source/agondev/release/lib/libagon.a(putchar.o) (_outchar)
/Users/jeroen/source/agondev/release/lib/libagon.a(malloc.c.o)
                              /Users/jeroen/source/agondev/release/lib/libagon.a(crt0.o) (_malloc)
/Users/jeroen/source/agondev/release/lib/libagon.a(sbrk.o)
                              /Users/jeroen/source/agondev/release/lib/libagon.a(malloc.c.o) (_sbrk)
/Users/jeroen/source/agondev/release/lib/libagon.a(mos_fputc.o)
                              /Users/jeroen/source/agondev/release/lib/libagon.a(fputc.o) (_mos_fputc)
/Users/jeroen/source/agondev/release/lib/libagon.a(lshrs.o)
                              /Users/jeroen/source/agondev/release/lib/libagon.a(lshru.o) (__lshrs.hijack_lshru)
/Users/jeroen/source/agondev/release/lib/libagon.a(idvrmu.o)
                              /Users/jeroen/source/agondev/release/lib/libagon.a(idivu.o) (__idvrmu)

There are no discarded input sections

Memory Configuration

Name             Origin             Length             Attributes
USERRAM          0x00040000         0x00070000         rw
*default*        0x00000000         0xffffffff

Linker script and memory map

                0x00040000                        RAM_START = 0x40000
                0x00070000                        RAM_SIZE = 0x70000
                0x00000000                        _has_exit_handler = 0x0
                0x00040000                        . = RAM_START

.init           0x00040000      0x1d4
 *(.init .init.args .init.bss .fini)
 .init          0x00040000       0xbb /Users/jeroen/source/agondev/release/lib/libagon.a(crt0.o)
                0x00040040                __mos_header
                0x00040045                __start
                0x000400b8                __start._main
 .fini          0x000400bb       0xbe /Users/jeroen/source/agondev/release/lib/libagon.a(crt0.o)
                0x000400bb                ___exithl
                0x000400bd                _exit
                0x0004011c                __Exit
                0x00040120                _abort
 .init.bss      0x00040179       0x11 /Users/jeroen/source/agondev/release/lib/libagon.a(crt0.o)
 .init.args     0x0004018a       0x4a /Users/jeroen/source/agondev/release/lib/libagon.a(crt0.o)
                0x0004018a                _parse_option
                0x0004018a                _parse_params

.text           0x000401d4     0x1ddc
 *(.text)
 .text          0x000401d4      0x1b3 obj/main.o
                0x000401d4                _main
 .text          0x00040387     0x13b8 /Users/jeroen/source/agondev/release/lib/libagon.a(nanoprintf.o)
                0x00040387                _npf_vpprintf
                0x000414c8                _npf_pprintf
                0x000414f0                _npf_snprintf
                0x00041518                _npf_vsnprintf
                0x000415c5                _vprintf
                0x000415f5                _printf
                0x00041614                _fprintf
                0x00041637                _vfprintf
                0x0004166c                _vsnprintf
                0x000416cf                _snprintf
                0x000416f7                _vsprintf
                0x00041716                _sprintf
 .text          0x0004173f       0x25 /Users/jeroen/source/agondev/release/lib/libagon.a(vdp_cursor_enable.o)
                0x0004173f                _vdp_cursor_enable
 .text          0x00041764       0xa8 /Users/jeroen/source/agondev/release/lib/libagon.a(vdp_load_bitmap.o)
                0x00041764                _vdp_load_bitmap
 .text          0x0004180c       0x27 /Users/jeroen/source/agondev/release/lib/libagon.a(vdp_mouse_set_cursor.o)
                0x0004180c                _vdp_mouse_set_cursor
 .text          0x00041833       0x17 /Users/jeroen/source/agondev/release/lib/libagon.a(vdp_mouse_enable.o)
                0x00041833                _vdp_mouse_enable
 .text          0x0004184a       0x23 /Users/jeroen/source/agondev/release/lib/libagon.a(vdp_select_bitmap.o)
                0x0004184a                _vdp_select_bitmap
 .text          0x0004186d       0x17 /Users/jeroen/source/agondev/release/lib/libagon.a(vdp_clear_screen.o)
                0x0004186d                _vdp_clear_screen
 .text          0x00041884       0x17 /Users/jeroen/source/agondev/release/lib/libagon.a(vdp_mouse_disable.o)
                0x00041884                _vdp_mouse_disable
 .text          0x0004189b       0x17 /Users/jeroen/source/agondev/release/lib/libagon.a(vdp_set_pixel_coordinates.o)
                0x0004189b                _vdp_set_pixel_coordinates
 .text          0x000418b2       0x2a /Users/jeroen/source/agondev/release/lib/libagon.a(vdp_mouse_set_bitmap.o)
                0x000418b2                _vdp_mouse_set_bitmap
 .text          0x000418dc       0x2a /Users/jeroen/source/agondev/release/lib/libagon.a(vdp_cursor_tab.o)
                0x000418dc                _vdp_cursor_tab
 .text          0x00041906       0x3a /Users/jeroen/source/agondev/release/lib/libagon.a(vdp_mode.o)
                0x00041906                _vdp_mode
 .text          0x00041940       0x40 /Users/jeroen/source/agondev/release/lib/libagon.a(timer.o)
                0x00041940                _delay
 .text          0x00041980       0x2f /Users/jeroen/source/agondev/release/lib/libagon.a(putchar.o)
                0x00041980                _putchar
 .text          0x000419af       0x2c /Users/jeroen/source/agondev/release/lib/libagon.a(puts.o)
                0x000419af                _puts
 .text          0x000419db       0x2c /Users/jeroen/source/agondev/release/lib/libagon.a(crt0.o)
                0x000419db                _atexit
                0x000419db                _on_exit
 .text          0x00041a07       0x10 /Users/jeroen/source/agondev/release/lib/libagon.a(vdp_waitkeyup.o)
                0x00041a07                _vdp_waitKeyUp
 .text          0x00041a17       0x17 /Users/jeroen/source/agondev/release/lib/libagon.a(vdp_getkeycode.o)
                0x00041a17                _vdp_getKeyCode
 .text          0x00041a2e       0x15 /Users/jeroen/source/agondev/release/lib/libagon.a(mos_getsysvar_mouseydelta.o)
                0x00041a2e                _getsysvar_mouseYDelta
 .text          0x00041a43       0x15 /Users/jeroen/source/agondev/release/lib/libagon.a(mos_getsysvar_mousexdelta.o)
                0x00041a43                _getsysvar_mouseXDelta
 .text          0x00041a58       0x11 /Users/jeroen/source/agondev/release/lib/libagon.a(mos_getsysvar_mousewheel.o)
                0x00041a58                _getsysvar_mouseWheel
 .text          0x00041a69       0x15 /Users/jeroen/source/agondev/release/lib/libagon.a(mos_getsysvar_mousex.o)
                0x00041a69                _getsysvar_mouseX
 .text          0x00041a7e       0x15 /Users/jeroen/source/agondev/release/lib/libagon.a(mos_getsysvar_mousey.o)
                0x00041a7e                _getsysvar_mouseY
 .text          0x00041a93       0x11 /Users/jeroen/source/agondev/release/lib/libagon.a(mos_getsysvar_mousebuttons.o)
                0x00041a93                _getsysvar_mouseButtons
 .text          0x00041aa4       0x19 /Users/jeroen/source/agondev/release/lib/libagon.a(mos_puts.o)
                0x00041aa4                _mos_puts
 .text          0x00041abd        0xa /Users/jeroen/source/agondev/release/lib/libagon.a(ldivu.o)
                0x00041abd                __ldivu
 .text          0x00041ac7        0xb /Users/jeroen/source/agondev/release/lib/libagon.a(lcmpzero.o)
                0x00041ac7                __lcmpzero
 .text          0x00041ad2        0xd /Users/jeroen/source/agondev/release/lib/libagon.a(sshru.o)
                0x00041ad2                __sshru
 .text          0x00041adf        0xd /Users/jeroen/source/agondev/release/lib/libagon.a(lneg.o)
                0x00041adf                __lneg
 .text          0x00041aec       0x28 /Users/jeroen/source/agondev/release/lib/libagon.a(ldvrmu.o)
                0x00041aec                __ldvrmu
 .text          0x00041b14        0x9 /Users/jeroen/source/agondev/release/lib/libagon.a(sand.o)
                0x00041b14                __sand
 .text          0x00041b1d       0x5c /Users/jeroen/source/agondev/release/lib/libagon.a(lmulu.o)
                0x00041b1d                __lmuls
                0x00041b1d                __lmulu
 .text          0x00041b79       0x26 /Users/jeroen/source/agondev/release/lib/libagon.a(ishl.o)
                0x00041b79                __sshl
                0x00041b79                __ishl
 .text          0x00041b9f       0x10 /Users/jeroen/source/agondev/release/lib/libagon.a(lshru.o)
                0x00041b9f                __lshru
 .text          0x00041baf       0x1d /Users/jeroen/source/agondev/release/lib/libagon.a(fpcmp.o)
                0x00041baf                __fcmp
 .text          0x00041bcc        0xb /Users/jeroen/source/agondev/release/lib/libagon.a(frameset0.o)
                0x00041bcc                __frameset0
 .text          0x00041bd7        0xd /Users/jeroen/source/agondev/release/lib/libagon.a(lcmps.o)
                0x00041bd7                __lcmps
 .text          0x00041be4       0x30 /Users/jeroen/source/agondev/release/lib/libagon.a(imulu.o)
                0x00041be4                __imuls
                0x00041be4                __imulu
 .text          0x00041c14        0xd /Users/jeroen/source/agondev/release/lib/libagon.a(lshl.o)
                0x00041c14                __lshl
 .text          0x00041c21        0x8 /Users/jeroen/source/agondev/release/lib/libagon.a(lcmpu.o)
                0x00041c21                __lcmpu
 .text          0x00041c29       0x41 /Users/jeroen/source/agondev/release/lib/libagon.a(ishrs.o)
                0x00041c29                __ishru
                0x00041c2e                __ishrs
 .text          0x00041c6a        0xf /Users/jeroen/source/agondev/release/lib/libagon.a(setflag.o)
                0x00041c6a                __setflag
 .text          0x00041c79        0x1 /Users/jeroen/source/agondev/release/lib/libagon.a(indcallhl.o)
                0x00041c79                __indcallhl
 .text          0x00041c7a       0x1c /Users/jeroen/source/agondev/release/lib/libagon.a(and.o)
                0x00041c7a                __land
                0x00041c7f                __iand
                0x00041c80                __iand.hijack_land
 .text          0x00041c96        0x6 /Users/jeroen/source/agondev/release/lib/libagon.a(ladd.o)
                0x00041c96                __ladd
 .text          0x00041c9c        0xa /Users/jeroen/source/agondev/release/lib/libagon.a(bshru.o)
                0x00041c9c                __bshru
 .text          0x00041ca6        0xe /Users/jeroen/source/agondev/release/lib/libagon.a(frameset.o)
                0x00041ca6                __frameset
 .text          0x00041cb4       0x1b /Users/jeroen/source/agondev/release/lib/libagon.a(xor.o)
                0x00041cb4                __lxor
                0x00041cb8                __ixor
 .text          0x00041ccf        0x8 /Users/jeroen/source/agondev/release/lib/libagon.a(idivu.o)
                0x00041ccf                __idivu
 .text          0x00041cd7       0xb7 /Users/jeroen/source/agondev/release/lib/libagon.a(fputc.o)
                0x00041cd7                _fputc
                0x00041d67                _fput_char
 .text          0x00041d8e       0x52 /Users/jeroen/source/agondev/release/lib/libagon.a(files.o)
                0x00041d8e                __stdio_init
 .text          0x00041de0       0xbd /Users/jeroen/source/agondev/release/lib/libagon.a(free.c.o)
                0x00041de0                _free
 .text          0x00041e9d        0x7 /Users/jeroen/source/agondev/release/lib/libagon.a(outchar.o)
                0x00041e9d                _outchar
 .text          0x00041ea4       0x9f /Users/jeroen/source/agondev/release/lib/libagon.a(malloc.c.o)
                0x00041ea4                _malloc
 .text          0x00041f43       0x22 /Users/jeroen/source/agondev/release/lib/libagon.a(sbrk.o)
                0x00041f43                _sbrk
 .text          0x00041f65       0x18 /Users/jeroen/source/agondev/release/lib/libagon.a(mos_fputc.o)
                0x00041f65                _mos_fputc
 .text          0x00041f7d       0x1b /Users/jeroen/source/agondev/release/lib/libagon.a(lshrs.o)
                0x00041f7d                __lshrs
                0x00041f89                __lshrs.hijack_lshru
 .text          0x00041f98       0x18 /Users/jeroen/source/agondev/release/lib/libagon.a(idvrmu.o)
                0x00041f98                __idvrmu
                0x00041f9c                __idvrmu.hijack_a_iters_ude_dividend

.init_array     0x00041fb0        0x0
 *(.init_array)
 .init_array    0x00041fb0        0x0 /Users/jeroen/source/agondev/release/lib/libagon.a(crt0.o)

.ctors          0x00041fb0        0x0
 *(.ctors)
 .ctors         0x00041fb0        0x0 /Users/jeroen/source/agondev/release/lib/libagon.a(crt0.o)

.dtors          0x00041fb0        0x0
 *(.dtors)
 .dtors         0x00041fb0        0x0 /Users/jeroen/source/agondev/release/lib/libagon.a(crt0.o)

.comment        0x00000000      0x7e4
 .comment       0x00000000       0x71 obj/main.o
 .comment       0x00000071       0x71 /Users/jeroen/source/agondev/release/lib/libagon.a(nanoprintf.o)
 .comment       0x000000e2       0x71 /Users/jeroen/source/agondev/release/lib/libagon.a(vdp_cursor_enable.o)
 .comment       0x00000153       0x71 /Users/jeroen/source/agondev/release/lib/libagon.a(vdp_load_bitmap.o)
 .comment       0x000001c4       0x71 /Users/jeroen/source/agondev/release/lib/libagon.a(vdp_mouse_set_cursor.o)
 .comment       0x00000235       0x71 /Users/jeroen/source/agondev/release/lib/libagon.a(vdp_mouse_enable.o)
 .comment       0x000002a6       0x71 /Users/jeroen/source/agondev/release/lib/libagon.a(vdp_select_bitmap.o)
 .comment       0x00000317       0x71 /Users/jeroen/source/agondev/release/lib/libagon.a(vdp_clear_screen.o)
 .comment       0x00000388       0x71 /Users/jeroen/source/agondev/release/lib/libagon.a(vdp_mouse_disable.o)
 .comment       0x000003f9       0x71 /Users/jeroen/source/agondev/release/lib/libagon.a(vdp_set_pixel_coordinates.o)
 .comment       0x0000046a       0x71 /Users/jeroen/source/agondev/release/lib/libagon.a(vdp_mouse_set_bitmap.o)
 .comment       0x000004db       0x71 /Users/jeroen/source/agondev/release/lib/libagon.a(vdp_cursor_tab.o)
 .comment       0x0000054c       0x71 /Users/jeroen/source/agondev/release/lib/libagon.a(vdp_mode.o)
 .comment       0x000005bd       0x71 /Users/jeroen/source/agondev/release/lib/libagon.a(timer.o)
 .comment       0x0000062e       0x71 /Users/jeroen/source/agondev/release/lib/libagon.a(fputc.o)
 .comment       0x0000069f       0x71 /Users/jeroen/source/agondev/release/lib/libagon.a(files.o)
 .comment       0x00000710       0x6a /Users/jeroen/source/agondev/release/lib/libagon.a(free.c.o)
 .comment       0x0000077a       0x6a /Users/jeroen/source/agondev/release/lib/libagon.a(malloc.c.o)

.fini_array     0x00041fb0        0x0
 *(.fini_array)
 .fini_array    0x00041fb0        0x0 /Users/jeroen/source/agondev/release/lib/libagon.a(crt0.o)

.rodata         0x00041fb0      0x1d1
 *(.rodata)
 .rodata        0x00041fb0      0x111 obj/main.o
                0x00041fb0                _cursorBitmapID
                0x00041fb1                _screen_mode
                0x00041fb2                _maxIcons
 .rodata        0x000420c1       0xab /Users/jeroen/source/agondev/release/lib/libagon.a(nanoprintf.o)
 .rodata        0x0004216c        0x9 /Users/jeroen/source/agondev/release/lib/libagon.a(puts.o)
                0x0004216c                ___null_literal_str
                0x00042173                ___end_of_line_str
 .rodata        0x00042175        0xc /Users/jeroen/source/agondev/release/lib/libagon.a(crt0.o)

.data           0x00042181      0x473
 *(.data)
 .data          0x00042181      0x400 obj/main.o
                0x00042181                _mouse_bod
 .data          0x00042581        0x0 /Users/jeroen/source/agondev/release/lib/libagon.a(nanoprintf.o)
 .data          0x00042581        0x3 /Users/jeroen/source/agondev/release/lib/libagon.a(vdp_cursor_enable.o)
 .data          0x00042584        0x7 /Users/jeroen/source/agondev/release/lib/libagon.a(vdp_load_bitmap.o)
 .data          0x0004258b        0x6 /Users/jeroen/source/agondev/release/lib/libagon.a(vdp_mouse_set_cursor.o)
 .data          0x00042591        0x4 /Users/jeroen/source/agondev/release/lib/libagon.a(vdp_mouse_enable.o)
 .data          0x00042595        0x4 /Users/jeroen/source/agondev/release/lib/libagon.a(vdp_select_bitmap.o)
 .data          0x00042599        0x1 /Users/jeroen/source/agondev/release/lib/libagon.a(vdp_clear_screen.o)
 .data          0x0004259a        0x4 /Users/jeroen/source/agondev/release/lib/libagon.a(vdp_mouse_disable.o)
 .data          0x0004259e        0x4 /Users/jeroen/source/agondev/release/lib/libagon.a(vdp_set_pixel_coordinates.o)
 .data          0x000425a2        0x5 /Users/jeroen/source/agondev/release/lib/libagon.a(vdp_mouse_set_bitmap.o)
 .data          0x000425a7        0x3 /Users/jeroen/source/agondev/release/lib/libagon.a(vdp_cursor_tab.o)
 .data          0x000425aa        0x2 /Users/jeroen/source/agondev/release/lib/libagon.a(vdp_mode.o)
 .data          0x000425ac        0x0 /Users/jeroen/source/agondev/release/lib/libagon.a(timer.o)
 .data          0x000425ac        0x0 /Users/jeroen/source/agondev/release/lib/libagon.a(putchar.o)
 .data          0x000425ac        0x0 /Users/jeroen/source/agondev/release/lib/libagon.a(puts.o)
 .data          0x000425ac       0x36 /Users/jeroen/source/agondev/release/lib/libagon.a(crt0.o)
                0x000425df                _exit.sp
 .data          0x000425e2        0x0 /Users/jeroen/source/agondev/release/lib/libagon.a(vdp_waitkeyup.o)
 .data          0x000425e2        0x0 /Users/jeroen/source/agondev/release/lib/libagon.a(vdp_getkeycode.o)
 .data          0x000425e2        0x0 /Users/jeroen/source/agondev/release/lib/libagon.a(mos_getsysvar_mouseydelta.o)
 .data          0x000425e2        0x0 /Users/jeroen/source/agondev/release/lib/libagon.a(mos_getsysvar_mousexdelta.o)
 .data          0x000425e2        0x0 /Users/jeroen/source/agondev/release/lib/libagon.a(mos_getsysvar_mousewheel.o)
 .data          0x000425e2        0x0 /Users/jeroen/source/agondev/release/lib/libagon.a(mos_getsysvar_mousex.o)
 .data          0x000425e2        0x0 /Users/jeroen/source/agondev/release/lib/libagon.a(mos_getsysvar_mousey.o)
 .data          0x000425e2        0x0 /Users/jeroen/source/agondev/release/lib/libagon.a(mos_getsysvar_mousebuttons.o)
 .data          0x000425e2        0x0 /Users/jeroen/source/agondev/release/lib/libagon.a(mos_puts.o)
 .data          0x000425e2        0x0 /Users/jeroen/source/agondev/release/lib/libagon.a(ldivu.o)
 .data          0x000425e2        0x0 /Users/jeroen/source/agondev/release/lib/libagon.a(lcmpzero.o)
 .data          0x000425e2        0x0 /Users/jeroen/source/agondev/release/lib/libagon.a(sshru.o)
 .data          0x000425e2        0x0 /Users/jeroen/source/agondev/release/lib/libagon.a(lneg.o)
 .data          0x000425e2        0x0 /Users/jeroen/source/agondev/release/lib/libagon.a(ldvrmu.o)
 .data          0x000425e2        0x0 /Users/jeroen/source/agondev/release/lib/libagon.a(sand.o)
 .data          0x000425e2        0x0 /Users/jeroen/source/agondev/release/lib/libagon.a(lmulu.o)
 .data          0x000425e2        0x0 /Users/jeroen/source/agondev/release/lib/libagon.a(ishl.o)
 .data          0x000425e2        0x0 /Users/jeroen/source/agondev/release/lib/libagon.a(lshru.o)
 .data          0x000425e2        0x0 /Users/jeroen/source/agondev/release/lib/libagon.a(fpcmp.o)
 .data          0x000425e2        0x0 /Users/jeroen/source/agondev/release/lib/libagon.a(frameset0.o)
 .data          0x000425e2        0x0 /Users/jeroen/source/agondev/release/lib/libagon.a(lcmps.o)
 .data          0x000425e2        0x0 /Users/jeroen/source/agondev/release/lib/libagon.a(imulu.o)
 .data          0x000425e2        0x0 /Users/jeroen/source/agondev/release/lib/libagon.a(lshl.o)
 .data          0x000425e2        0x0 /Users/jeroen/source/agondev/release/lib/libagon.a(lcmpu.o)
 .data          0x000425e2        0x0 /Users/jeroen/source/agondev/release/lib/libagon.a(ishrs.o)
 .data          0x000425e2        0x0 /Users/jeroen/source/agondev/release/lib/libagon.a(setflag.o)
 .data          0x000425e2        0x0 /Users/jeroen/source/agondev/release/lib/libagon.a(indcallhl.o)
 .data          0x000425e2        0x0 /Users/jeroen/source/agondev/release/lib/libagon.a(and.o)
 .data          0x000425e2        0x0 /Users/jeroen/source/agondev/release/lib/libagon.a(ladd.o)
 .data          0x000425e2        0x0 /Users/jeroen/source/agondev/release/lib/libagon.a(bshru.o)
 .data          0x000425e2        0x0 /Users/jeroen/source/agondev/release/lib/libagon.a(frameset.o)
 .data          0x000425e2        0x0 /Users/jeroen/source/agondev/release/lib/libagon.a(xor.o)
 .data          0x000425e2        0x0 /Users/jeroen/source/agondev/release/lib/libagon.a(idivu.o)
 .data          0x000425e2        0x0 /Users/jeroen/source/agondev/release/lib/libagon.a(fputc.o)
 .data          0x000425e2        0xf /Users/jeroen/source/agondev/release/lib/libagon.a(files.o)
                0x000425e2                _stdin
                0x000425e7                _stdout
                0x000425ec                _stderr
 .data          0x000425f1        0x0 /Users/jeroen/source/agondev/release/lib/libagon.a(free.c.o)
 .data          0x000425f1        0x0 /Users/jeroen/source/agondev/release/lib/libagon.a(outchar.o)
 .data          0x000425f1        0x0 /Users/jeroen/source/agondev/release/lib/libagon.a(malloc.c.o)
 .data          0x000425f1        0x3 /Users/jeroen/source/agondev/release/lib/libagon.a(sbrk.o)
                0x000425f1                __sbrkbase
 .data          0x000425f4        0x0 /Users/jeroen/source/agondev/release/lib/libagon.a(mos_fputc.o)
 .data          0x000425f4        0x0 /Users/jeroen/source/agondev/release/lib/libagon.a(lshrs.o)
 .data          0x000425f4        0x0 /Users/jeroen/source/agondev/release/lib/libagon.a(idvrmu.o)

.bss            0x000425f4       0x2f
                0x000425f4                        bss_start = .
 *(.bss .bss*)
 .bss           0x000425f4        0x1 obj/main.o
                0x000425f4                _curIcon
 .bss           0x000425f5        0x0 /Users/jeroen/source/agondev/release/lib/libagon.a(nanoprintf.o)
 .bss           0x000425f5        0x0 /Users/jeroen/source/agondev/release/lib/libagon.a(vdp_cursor_enable.o)
 .bss           0x000425f5        0x0 /Users/jeroen/source/agondev/release/lib/libagon.a(vdp_load_bitmap.o)
 .bss           0x000425f5        0x0 /Users/jeroen/source/agondev/release/lib/libagon.a(vdp_mouse_set_cursor.o)
 .bss           0x000425f5        0x0 /Users/jeroen/source/agondev/release/lib/libagon.a(vdp_mouse_enable.o)
 .bss           0x000425f5        0x0 /Users/jeroen/source/agondev/release/lib/libagon.a(vdp_select_bitmap.o)
 .bss           0x000425f5        0x0 /Users/jeroen/source/agondev/release/lib/libagon.a(vdp_clear_screen.o)
 .bss           0x000425f5        0x0 /Users/jeroen/source/agondev/release/lib/libagon.a(vdp_mouse_disable.o)
 .bss           0x000425f5        0x0 /Users/jeroen/source/agondev/release/lib/libagon.a(vdp_set_pixel_coordinates.o)
 .bss           0x000425f5        0x0 /Users/jeroen/source/agondev/release/lib/libagon.a(vdp_mouse_set_bitmap.o)
 .bss           0x000425f5        0x0 /Users/jeroen/source/agondev/release/lib/libagon.a(vdp_cursor_tab.o)
 .bss           0x000425f5        0x0 /Users/jeroen/source/agondev/release/lib/libagon.a(vdp_mode.o)
 .bss           0x000425f5        0x0 /Users/jeroen/source/agondev/release/lib/libagon.a(timer.o)
 .bss           0x000425f5        0x0 /Users/jeroen/source/agondev/release/lib/libagon.a(putchar.o)
 .bss           0x000425f5        0x0 /Users/jeroen/source/agondev/release/lib/libagon.a(puts.o)
 .bss           0x000425f5        0x0 /Users/jeroen/source/agondev/release/lib/libagon.a(crt0.o)
 .bss           0x000425f5        0x0 /Users/jeroen/source/agondev/release/lib/libagon.a(vdp_waitkeyup.o)
 .bss           0x000425f5        0x0 /Users/jeroen/source/agondev/release/lib/libagon.a(vdp_getkeycode.o)
 .bss           0x000425f5        0x0 /Users/jeroen/source/agondev/release/lib/libagon.a(mos_getsysvar_mouseydelta.o)
 .bss           0x000425f5        0x0 /Users/jeroen/source/agondev/release/lib/libagon.a(mos_getsysvar_mousexdelta.o)
 .bss           0x000425f5        0x0 /Users/jeroen/source/agondev/release/lib/libagon.a(mos_getsysvar_mousewheel.o)
 .bss           0x000425f5        0x0 /Users/jeroen/source/agondev/release/lib/libagon.a(mos_getsysvar_mousex.o)
 .bss           0x000425f5        0x0 /Users/jeroen/source/agondev/release/lib/libagon.a(mos_getsysvar_mousey.o)
 .bss           0x000425f5        0x0 /Users/jeroen/source/agondev/release/lib/libagon.a(mos_getsysvar_mousebuttons.o)
 .bss           0x000425f5        0x0 /Users/jeroen/source/agondev/release/lib/libagon.a(mos_puts.o)
 .bss           0x000425f5        0x0 /Users/jeroen/source/agondev/release/lib/libagon.a(ldivu.o)
 .bss           0x000425f5        0x0 /Users/jeroen/source/agondev/release/lib/libagon.a(lcmpzero.o)
 .bss           0x000425f5        0x0 /Users/jeroen/source/agondev/release/lib/libagon.a(sshru.o)
 .bss           0x000425f5        0x0 /Users/jeroen/source/agondev/release/lib/libagon.a(lneg.o)
 .bss           0x000425f5        0x0 /Users/jeroen/source/agondev/release/lib/libagon.a(ldvrmu.o)
 .bss           0x000425f5        0x0 /Users/jeroen/source/agondev/release/lib/libagon.a(sand.o)
 .bss           0x000425f5        0x0 /Users/jeroen/source/agondev/release/lib/libagon.a(lmulu.o)
 .bss           0x000425f5        0x0 /Users/jeroen/source/agondev/release/lib/libagon.a(ishl.o)
 .bss           0x000425f5        0x0 /Users/jeroen/source/agondev/release/lib/libagon.a(lshru.o)
 .bss           0x000425f5        0x0 /Users/jeroen/source/agondev/release/lib/libagon.a(fpcmp.o)
 .bss           0x000425f5        0x0 /Users/jeroen/source/agondev/release/lib/libagon.a(frameset0.o)
 .bss           0x000425f5        0x0 /Users/jeroen/source/agondev/release/lib/libagon.a(lcmps.o)
 .bss           0x000425f5        0x0 /Users/jeroen/source/agondev/release/lib/libagon.a(imulu.o)
 .bss           0x000425f5        0x0 /Users/jeroen/source/agondev/release/lib/libagon.a(lshl.o)
 .bss           0x000425f5        0x0 /Users/jeroen/source/agondev/release/lib/libagon.a(lcmpu.o)
 .bss           0x000425f5        0x0 /Users/jeroen/source/agondev/release/lib/libagon.a(ishrs.o)
 .bss           0x000425f5        0x0 /Users/jeroen/source/agondev/release/lib/libagon.a(setflag.o)
 .bss           0x000425f5        0x0 /Users/jeroen/source/agondev/release/lib/libagon.a(indcallhl.o)
 .bss           0x000425f5        0x0 /Users/jeroen/source/agondev/release/lib/libagon.a(and.o)
 .bss           0x000425f5        0x0 /Users/jeroen/source/agondev/release/lib/libagon.a(ladd.o)
 .bss           0x000425f5        0x0 /Users/jeroen/source/agondev/release/lib/libagon.a(bshru.o)
 .bss           0x000425f5        0x0 /Users/jeroen/source/agondev/release/lib/libagon.a(frameset.o)
 .bss           0x000425f5        0x0 /Users/jeroen/source/agondev/release/lib/libagon.a(xor.o)
 .bss           0x000425f5        0x0 /Users/jeroen/source/agondev/release/lib/libagon.a(idivu.o)
 .bss           0x000425f5        0x0 /Users/jeroen/source/agondev/release/lib/libagon.a(fputc.o)
 .bss           0x000425f5       0x28 /Users/jeroen/source/agondev/release/lib/libagon.a(files.o)
                0x000425f5                __file_streams
 .bss           0x0004261d        0x0 /Users/jeroen/source/agondev/release/lib/libagon.a(free.c.o)
 .bss           0x0004261d        0x0 /Users/jeroen/source/agondev/release/lib/libagon.a(outchar.o)
 .bss           0x0004261d        0x6 /Users/jeroen/source/agondev/release/lib/libagon.a(malloc.c.o)
                0x0004261d                __alloc_base
 .bss           0x00042623        0x0 /Users/jeroen/source/agondev/release/lib/libagon.a(sbrk.o)
 .bss           0x00042623        0x0 /Users/jeroen/source/agondev/release/lib/libagon.a(mos_fputc.o)
 .bss           0x00042623        0x0 /Users/jeroen/source/agondev/release/lib/libagon.a(lshrs.o)
 .bss           0x00042623        0x0 /Users/jeroen/source/agondev/release/lib/libagon.a(idvrmu.o)
                0x00042623                        bss_end = .
                0x000b0000                        __stack = (RAM_START + RAM_SIZE)
                0x000425f4                        ___low_bss = bss_start
                0x0000002f                        ___len_bss = SIZEOF (.bss)
                0x00042623                        ___heapbot = bss_end
                0x000b0000                        ___heaptop = (RAM_START + RAM_SIZE)
                0x00000001                        ___run_clearbss = (___len_bss > 0x0)
                0x00000000                        ___init_array_count = (SIZEOF (.init_array) / 0x3)
                0x00000000                        ___ctors_count = (SIZEOF (.ctors) / 0x3)
                0x00000000                        ___dtors_count = (SIZEOF (.dtors) / 0x3)
                0x00000000                        ___fini_array_count = (SIZEOF (.fini_array) / 0x3)
                0x00000000                        ___init_count = (___init_array_count + ___ctors_count)
                0x00000000                        ___fini_count = (___dtors_count + ___fini_array_count)
                0x00000000                        ___run_init = (___init_count > 0x0)
                0x00000000                        ___run_fini = (___fini_count > 0x0)
                0x00000100                        ___init_count_a = ((((___init_count - 0x1) >> 0x10) & 0xff) + 0x1)
                0x00000100                        ___init_count_b = (((___init_count - 0x1) & 0xff) + 0x1)
                0x00000100                        ___init_count_c = ((((___init_count - 0x1) >> 0x8) & 0xff) + 0x1)
                0x00000100                        ___fini_count_a = ((((___fini_count - 0x1) >> 0x10) & 0xff) + 0x1)
                0x00000100                        ___fini_count_b = (((___fini_count - 0x1) & 0xff) + 0x1)
                0x00000100                        ___fini_count_c = ((((___fini_count - 0x1) >> 0x8) & 0xff) + 0x1)
                0x00041fb0                        ___init_array_functions = (SIZEOF (.init_array) + ADDR (.init_array))
                0x00041fb0                        ___init_ctors_functions = (SIZEOF (.ctors) + ADDR (.ctors))
                0x00041fb0                        ___fini_dtors_functions = (SIZEOF (.dtors) + ADDR (.dtors))
                0x00041fb0                        ___fini_array_functions = (SIZEOF (.fini_array) + ADDR (.fini_array))
LOAD obj/main.o
LOAD /Users/jeroen/source/agondev/release/lib/libagon.a
OUTPUT(bin/mouse.noname.bin binary)
